c__builtin__
set
p0
((lp1
Vall
p2
aVjust
p3
aVbeing
p4
aS'able'
p5
aVover
p6
aVthrough
p7
aVduring
p8
aVits
p9
aVbefore
p10
aVhadn
p11
aVwith
p12
aVll
p13
aVhad
p14
aVshould
p15
aVto
p16
aVonly
p17
aVdoes
p18
aVunder
p19
aVours
p20
aVhas
p21
aVdo
p22
aVthem
p23
aVhis
p24
aVvery
p25
aVthey
p26
aVnot
p27
aVyourselves
p28
aVnow
p29
aVhim
p30
aVnor
p31
aVd
p32
aVdid
p33
aVdidn
p34
aVthese
p35
aVshe
p36
aVeach
p37
aVwhere
p38
aS'requirement'
p39
aVbecause
p40
aVdoing
p41
aVtheirs
p42
aVsome
p43
aVwe
p44
aVup
p45
aVare
p46
aVfurther
p47
aVourselves
p48
aVout
p49
aVwhat
p50
aVfor
p51
aVweren
p52
aVre
p53
aVwon
p54
aVabove
p55
aVbetween
p56
aVmustn
p57
aVt
p58
aVbe
p59
aVhasn
p60
aVafter
p61
aS'ability'
p62
aVhere
p63
aVshouldn
p64
aVhers
p65
aVby
p66
aVboth
p67
aVabout
p68
aVcouldn
p69
aVof
p70
aS'job'
p71
aVo
p72
aVs
p73
aS'must'
p74
aVisn
p75
aS'com'
p76
aVor
p77
aVown
p78
aVinto
p79
aS'www'
p80
aVyourself
p81
aVdown
p82
aVmightn
p83
aVwasn
p84
aVyour
p85
aVfrom
p86
aVher
p87
aVtheir
p88
aVaren
p89
aVthere
p90
aVbeen
p91
aVfew
p92
aVtoo
p93
aVthen
p94
aVthemselves
p95
aVwas
p96
aVuntil
p97
aVmore
p98
aVhimself
p99
aVon
p100
aS'company'
p101
aVbut
p102
aVoff
p103
aVherself
p104
aVthan
p105
aVthose
p106
aVhe
p107
aVme
p108
aVmyself
p109
aVma
p110
aS'look'
p111
aVthis
p112
aS'work'
p113
aVwhom
p114
aVwill
p115
aVwhile
p116
aVain
p117
aVbelow
p118
aVcan
p119
aVwere
p120
aVmy
p121
aS'example'
p122
aVat
p123
aVand
p124
aVve
p125
aVwouldn
p126
aVis
p127
aVin
p128
aVam
p129
aVit
p130
aVdoesn
p131
aVan
p132
aVas
p133
aVitself
p134
aVagainst
p135
aVhave
p136
aVour
p137
aVany
p138
aVif
p139
aVagain
p140
aVno
p141
aVthat
p142
aVwhen
p143
aVsame
p144
aVhow
p145
aVother
p146
aVwhich
p147
aVyou
p148
aVshan
p149
aVneedn
p150
aVhaven
p151
aS'may'
p152
aVwho
p153
aVmost
p154
aVsuch
p155
aVwhy
p156
aVa
p157
aVdon
p158
aVi
p159
aVm
p160
aVhaving
p161
aVso
p162
aVy
p163
aS'position'
p164
aVthe
p165
aVyours
p166
aVonce
p167
atp168
Rp169
.